; Function Attrs: mustprogress nofree norecurse nosync nounwind willreturn memory(argmem: read) uwtable
define range(i32 0, 2) i32 @Kit_PlaIsConst0(ptr noundef readonly captures(none) %0) local_unnamed_addr #0 {
  %2 = load i8, ptr %0, align 1, !tbaa !3
  %3 = icmp eq i8 %2, 32
  br i1 %3, label %4, label %9

4:                                                ; preds = %1
  %5 = getelementptr inbounds nuw i8, ptr %0, i64 1
  %6 = load i8, ptr %5, align 1, !tbaa !3
  %7 = icmp eq i8 %6, 48
  %8 = zext i1 %7 to i32
  br label %9

9:                                                ; preds = %4, %1
  %10 = phi i32 [ 0, %1 ], [ %8, %4 ]
  ret i32 %10
}